; Function Attrs: inlinehint mustprogress nounwind uwtable
define internal void @_ZN5arrow12_GLOBAL__N_110DebugStateD2Ev(ptr noundef nonnull align 8 dereferenceable(72) %0) unnamed_addr #12 align 2 personality ptr @__gxx_personality_v0 {
  %2 = getelementptr inbounds nuw i8, ptr %0, i64 56
  %3 = load ptr, ptr %2, align 8, !tbaa !291
  %.not.i = icmp eq ptr %3, null
  br i1 %.not.i, label %_ZNSt14_Function_baseD2Ev.exit, label %4

4:                                                ; preds = %1
  %5 = getelementptr inbounds nuw i8, ptr %0, i64 40
  %6 = invoke noundef zeroext i1 %3(ptr noundef nonnull align 8 dereferenceable(32) %5, ptr noundef nonnull align 8 dereferenceable(32) %5, i32 noundef 3)
          to label %_ZNSt14_Function_baseD2Ev.exit unwind label %7

7:                                                ; preds = %4
  %8 = landingpad { ptr, i32 }
          catch ptr null
  %9 = extractvalue { ptr, i32 } %8, 0
  tail call void @__clang_call_terminate(ptr %9) #35
  unreachable

_ZNSt14_Function_baseD2Ev.exit:                   ; preds = %1, %4
  ret void
}